target datalayout = "e-m:e-p270:32:32-p271:32:32-p272:64:64-i64:64-i128:128-f80:128-n8:16:32:64-S128"
target triple = "x86_64-pc-linux-gnu"

%struct.IpvideoContext = type { ptr, %struct.HpelDSPContext, ptr, ptr, ptr, ptr, ptr, i32, ptr, i32, i32, %struct.GetByteContext, %struct.GetByteContext, ptr, i32, i32, i32, [256 x i32] }
%struct.HpelDSPContext = type { [4 x [4 x ptr]], [4 x [4 x ptr]], [4 x [4 x ptr]], [4 x ptr] }
%struct.GetByteContext = type { ptr, ptr, ptr }

; Function Attrs: alwaysinline nounwind uwtable
define internal i32 @bytestream_get_le16(ptr noundef %0) #4 {
  %2 = alloca ptr, align 8
  store ptr %0, ptr %2, align 8, !tbaa !94
  %3 = load ptr, ptr %2, align 8, !tbaa !94
  %4 = load ptr, ptr %3, align 8, !tbaa !59
  %5 = getelementptr inbounds i8, ptr %4, i64 2
  store ptr %5, ptr %3, align 8, !tbaa !59
  %6 = load ptr, ptr %2, align 8, !tbaa !94
  %7 = load ptr, ptr %6, align 8, !tbaa !59
  %8 = getelementptr inbounds i8, ptr %7, i64 -2
  %9 = load i16, ptr %8, align 1, !tbaa !62
  %10 = zext i16 %9 to i32
  ret i32 %10
}

; Function Attrs: alwaysinline nounwind uwtable
define internal i32 @bytestream2_get_le16u(ptr noundef %0) #4 {
  %2 = alloca ptr, align 8
  store ptr %0, ptr %2, align 8, !tbaa !67
  %3 = load ptr, ptr %2, align 8, !tbaa !67
  %4 = getelementptr inbounds nuw %struct.GetByteContext, ptr %3, i32 0, i32 0
  %5 = call i32 @bytestream_get_le16(ptr noundef %4)
  ret i32 %5
}

; Function Attrs: alwaysinline nounwind uwtable
define internal i32 @bytestream2_get_le16(ptr noundef %0) #4 {
  %2 = alloca i32, align 4
  %3 = alloca ptr, align 8
  store ptr %0, ptr %3, align 8, !tbaa !67
  %4 = load ptr, ptr %3, align 8, !tbaa !67
  %5 = getelementptr inbounds nuw %struct.GetByteContext, ptr %4, i32 0, i32 1
  %6 = load ptr, ptr %5, align 8, !tbaa !71
  %7 = load ptr, ptr %3, align 8, !tbaa !67
  %8 = getelementptr inbounds nuw %struct.GetByteContext, ptr %7, i32 0, i32 0
  %9 = load ptr, ptr %8, align 8, !tbaa !69
  %10 = ptrtoint ptr %6 to i64
  %11 = ptrtoint ptr %9 to i64
  %12 = sub i64 %10, %11
  %13 = icmp slt i64 %12, 2
  br i1 %13, label %14, label %20

14:                                               ; preds = %1
  %15 = load ptr, ptr %3, align 8, !tbaa !67
  %16 = getelementptr inbounds nuw %struct.GetByteContext, ptr %15, i32 0, i32 1
  %17 = load ptr, ptr %16, align 8, !tbaa !71
  %18 = load ptr, ptr %3, align 8, !tbaa !67
  %19 = getelementptr inbounds nuw %struct.GetByteContext, ptr %18, i32 0, i32 0
  store ptr %17, ptr %19, align 8, !tbaa !69
  store i32 0, ptr %2, align 4
  br label %23

20:                                               ; preds = %1
  %21 = load ptr, ptr %3, align 8, !tbaa !67
  %22 = call i32 @bytestream2_get_le16u(ptr noundef %21)
  store i32 %22, ptr %2, align 4
  br label %23

23:                                               ; preds = %20, %14
  %24 = load i32, ptr %2, align 4
  ret i32 %24
}

; Function Attrs: nounwind uwtable
define internal i32 @ipvideo_decode_block_opcode_0xB_16(ptr noundef %0, ptr noundef %1) #1 {
  %3 = alloca ptr, align 8
  %4 = alloca ptr, align 8
  %5 = alloca i32, align 4
  %6 = alloca i32, align 4
  %7 = alloca ptr, align 8
  store ptr %0, ptr %3, align 8, !tbaa !29
  store ptr %1, ptr %4, align 8, !tbaa !53
  call void @llvm.lifetime.start.p0(i64 4, ptr %5) #11
  call void @llvm.lifetime.start.p0(i64 4, ptr %6) #11
  call void @llvm.lifetime.start.p0(i64 8, ptr %7) #11
  %8 = load ptr, ptr %3, align 8, !tbaa !29
  %9 = getelementptr inbounds nuw %struct.IpvideoContext, ptr %8, i32 0, i32 13
  %10 = load ptr, ptr %9, align 8, !tbaa !77
  store ptr %10, ptr %7, align 8, !tbaa !135
  store i32 0, ptr %6, align 4, !tbaa !61
  br label %11

11:                                               ; preds = %37, %2
  %12 = load i32, ptr %6, align 4, !tbaa !61
  %13 = icmp slt i32 %12, 8
  br i1 %13, label %14, label %40

14:                                               ; preds = %11
  store i32 0, ptr %5, align 4, !tbaa !61
  br label %15

15:                                               ; preds = %27, %14
  %16 = load i32, ptr %5, align 4, !tbaa !61
  %17 = icmp slt i32 %16, 8
  br i1 %17, label %18, label %30

18:                                               ; preds = %15
  %19 = load ptr, ptr %3, align 8, !tbaa !29
  %20 = getelementptr inbounds nuw %struct.IpvideoContext, ptr %19, i32 0, i32 11
  %21 = call i32 @bytestream2_get_le16(ptr noundef %20)
  %22 = trunc i32 %21 to i16
  %23 = load ptr, ptr %7, align 8, !tbaa !135
  %24 = load i32, ptr %5, align 4, !tbaa !61
  %25 = sext i32 %24 to i64
  %26 = getelementptr inbounds i16, ptr %23, i64 %25
  store i16 %22, ptr %26, align 2, !tbaa !75
  br label %27

27:                                               ; preds = %18
  %28 = load i32, ptr %5, align 4, !tbaa !61
  %29 = add nsw i32 %28, 1
  store i32 %29, ptr %5, align 4, !tbaa !61
  br label %15, !llvm.loop !162

30:                                               ; preds = %15
  %31 = load ptr, ptr %3, align 8, !tbaa !29
  %32 = getelementptr inbounds nuw %struct.IpvideoContext, ptr %31, i32 0, i32 15
  %33 = load i32, ptr %32, align 4, !tbaa !72
  %34 = load ptr, ptr %7, align 8, !tbaa !135
  %35 = sext i32 %33 to i64
  %36 = getelementptr inbounds i16, ptr %34, i64 %35
  store ptr %36, ptr %7, align 8, !tbaa !135
  br label %37

37:                                               ; preds = %30
  %38 = load i32, ptr %6, align 4, !tbaa !61
  %39 = add nsw i32 %38, 1
  store i32 %39, ptr %6, align 4, !tbaa !61
  br label %11, !llvm.loop !163

40:                                               ; preds = %11
  call void @llvm.lifetime.end.p0(i64 8, ptr %7) #11
  call void @llvm.lifetime.end.p0(i64 4, ptr %6) #11
  call void @llvm.lifetime.end.p0(i64 4, ptr %5) #11
  ret i32 0
}