; Function Attrs: nofree norecurse nosync nounwind memory(readwrite, inaccessiblemem: none) uwtable
define internal noundef i32 @ipvideo_decode_block_opcode_0xB_16(ptr noundef captures(none) %0, ptr readnone captures(none) %1) #6 {
  %3 = getelementptr inbounds nuw i8, ptr %0, i64 536
  %4 = load ptr, ptr %3, align 8, !tbaa !67
  %5 = getelementptr inbounds nuw i8, ptr %0, i64 488
  %6 = getelementptr inbounds nuw i8, ptr %0, i64 496
  %7 = load ptr, ptr %6, align 8, !tbaa !60
  %8 = ptrtoint ptr %7 to i64
  %9 = getelementptr inbounds nuw i8, ptr %0, i64 548
  %10 = load i32, ptr %9, align 4, !tbaa !63
  %11 = sext i32 %10 to i64
  %.promoted12 = load ptr, ptr %5, align 8, !tbaa !53
  br label %.preheader

.preheader:                                       ; preds = %2, %23
  %.016 = phi ptr [ %4, %2 ], [ %24, %23 ]
  %.0915 = phi i32 [ 0, %2 ], [ %25, %23 ]
  %.promoted1314 = phi ptr [ %.promoted12, %2 ], [ %21, %23 ]
  br label %12

12:                                               ; preds = %.preheader, %bytestream2_get_le16.exit
  %indvars.iv = phi i64 [ 0, %.preheader ], [ %indvars.iv.next, %bytestream2_get_le16.exit ]
  %13 = phi ptr [ %.promoted1314, %.preheader ], [ %21, %bytestream2_get_le16.exit ]
  %14 = ptrtoint ptr %13 to i64
  %15 = sub i64 %8, %14
  %16 = icmp slt i64 %15, 2
  br i1 %16, label %17, label %18

17:                                               ; preds = %12
  store ptr %7, ptr %5, align 8, !tbaa !58
  br label %bytestream2_get_le16.exit

18:                                               ; preds = %12
  %19 = getelementptr inbounds nuw i8, ptr %13, i64 2
  store ptr %19, ptr %5, align 8, !tbaa !53
  %20 = load i16, ptr %13, align 1, !tbaa !54
  br label %bytestream2_get_le16.exit

bytestream2_get_le16.exit:                        ; preds = %17, %18
  %21 = phi ptr [ %7, %17 ], [ %19, %18 ]
  %.0.i = phi i16 [ 0, %17 ], [ %20, %18 ]
  %22 = getelementptr inbounds nuw i16, ptr %.016, i64 %indvars.iv
  store i16 %.0.i, ptr %22, align 2, !tbaa !116
  %indvars.iv.next = add nuw nsw i64 %indvars.iv, 1
  %exitcond.not = icmp eq i64 %indvars.iv.next, 8
  br i1 %exitcond.not, label %23, label %12, !llvm.loop !144

23:                                               ; preds = %bytestream2_get_le16.exit
  %24 = getelementptr inbounds i16, ptr %.016, i64 %11
  %25 = add nuw nsw i32 %.0915, 1
  %exitcond18.not = icmp eq i32 %25, 8
  br i1 %exitcond18.not, label %26, label %.preheader, !llvm.loop !145

26:                                               ; preds = %23
  ret i32 0
}